target datalayout = "e-m:e-p270:32:32-p271:32:32-p272:64:64-i64:64-i128:128-f80:128-n8:16:32:64-S128"
target triple = "x86_64-pc-linux-gnu"

%struct.FunctionCallInfoBaseData = type { ptr, ptr, ptr, i32, i8, i16, [0 x %struct.NullableDatum] }
%struct.NullableDatum = type { i64, i8 }
%struct.GISTENTRY = type { i64, ptr, ptr, i16, i8 }
%struct.BOX = type { %struct.Point, %struct.Point }
%struct.Point = type { double, double }
%struct.POLYGON = type { i32, i32, %struct.BOX, [0 x %struct.Point] }

; Function Attrs: inlinehint nounwind uwtable
define internal i64 @BoolGetDatum(i1 noundef zeroext %0) #2 {
  %2 = alloca i8, align 1
  %3 = zext i1 %0 to i8
  store i8 %3, ptr %2, align 1
  %4 = load i8, ptr %2, align 1, !range !4, !noundef !5
  %5 = trunc i8 %4 to i1
  %6 = select i1 %5, i32 1, i32 0
  %7 = sext i32 %6 to i64
  ret i64 %7
}

; Function Attrs: inlinehint nounwind uwtable
define internal ptr @DatumGetBoxP(i64 noundef %0) #2 {
  %2 = alloca i64, align 8
  store i64 %0, ptr %2, align 8
  %3 = load i64, ptr %2, align 8
  %4 = call ptr @DatumGetPointer(i64 noundef %3)
  ret ptr %4
}

; Function Attrs: inlinehint nounwind uwtable
define internal zeroext i16 @DatumGetUInt16(i64 noundef %0) #2 {
  %2 = alloca i64, align 8
  store i64 %0, ptr %2, align 8
  %3 = load i64, ptr %2, align 8
  %4 = trunc i64 %3 to i16
  ret i16 %4
}

; Function Attrs: inlinehint nounwind uwtable
define internal ptr @DatumGetPolygonP(i64 noundef %0) #2 {
  %2 = alloca i64, align 8
  store i64 %0, ptr %2, align 8
  %3 = load i64, ptr %2, align 8
  %4 = call ptr @DatumGetPointer(i64 noundef %3)
  %5 = call ptr @pg_detoast_datum(ptr noundef %4)
  ret ptr %5
}

; Function Attrs: inlinehint nounwind uwtable
define internal ptr @DatumGetPointer(i64 noundef %0) #2 {
  %2 = alloca i64, align 8
  store i64 %0, ptr %2, align 8
  %3 = load i64, ptr %2, align 8
  %4 = inttoptr i64 %3 to ptr
  ret ptr %4
}

; Function Attrs: nounwind uwtable
define dso_local i64 @gist_poly_consistent(ptr noundef %0) #0 {
  %2 = alloca i64, align 8
  %3 = alloca ptr, align 8
  %4 = alloca ptr, align 8
  %5 = alloca ptr, align 8
  %6 = alloca i16, align 2
  %7 = alloca ptr, align 8
  %8 = alloca i8, align 1
  %9 = alloca i32, align 4
  store ptr %0, ptr %3, align 8
  call void @llvm.lifetime.start.p0(i64 8, ptr %4) #10
  %10 = load ptr, ptr %3, align 8
  %11 = getelementptr inbounds nuw %struct.FunctionCallInfoBaseData, ptr %10, i32 0, i32 6
  %12 = getelementptr inbounds [0 x %struct.NullableDatum], ptr %11, i64 0, i64 0
  %13 = getelementptr inbounds nuw %struct.NullableDatum, ptr %12, i32 0, i32 0
  %14 = load i64, ptr %13, align 8
  %15 = call ptr @DatumGetPointer(i64 noundef %14)
  store ptr %15, ptr %4, align 8
  call void @llvm.lifetime.start.p0(i64 8, ptr %5) #10
  %16 = load ptr, ptr %3, align 8
  %17 = getelementptr inbounds nuw %struct.FunctionCallInfoBaseData, ptr %16, i32 0, i32 6
  %18 = getelementptr inbounds [0 x %struct.NullableDatum], ptr %17, i64 0, i64 1
  %19 = getelementptr inbounds nuw %struct.NullableDatum, ptr %18, i32 0, i32 0
  %20 = load i64, ptr %19, align 8
  %21 = call ptr @DatumGetPolygonP(i64 noundef %20)
  store ptr %21, ptr %5, align 8
  call void @llvm.lifetime.start.p0(i64 2, ptr %6) #10
  %22 = load ptr, ptr %3, align 8
  %23 = getelementptr inbounds nuw %struct.FunctionCallInfoBaseData, ptr %22, i32 0, i32 6
  %24 = getelementptr inbounds [0 x %struct.NullableDatum], ptr %23, i64 0, i64 2
  %25 = getelementptr inbounds nuw %struct.NullableDatum, ptr %24, i32 0, i32 0
  %26 = load i64, ptr %25, align 8
  %27 = call zeroext i16 @DatumGetUInt16(i64 noundef %26)
  store i16 %27, ptr %6, align 2
  call void @llvm.lifetime.start.p0(i64 8, ptr %7) #10
  %28 = load ptr, ptr %3, align 8
  %29 = getelementptr inbounds nuw %struct.FunctionCallInfoBaseData, ptr %28, i32 0, i32 6
  %30 = getelementptr inbounds [0 x %struct.NullableDatum], ptr %29, i64 0, i64 4
  %31 = getelementptr inbounds nuw %struct.NullableDatum, ptr %30, i32 0, i32 0
  %32 = load i64, ptr %31, align 8
  %33 = call ptr @DatumGetPointer(i64 noundef %32)
  store ptr %33, ptr %7, align 8
  call void @llvm.lifetime.start.p0(i64 1, ptr %8) #10
  %34 = load ptr, ptr %7, align 8
  store i8 1, ptr %34, align 1
  %35 = load ptr, ptr %4, align 8
  %36 = getelementptr inbounds nuw %struct.GISTENTRY, ptr %35, i32 0, i32 0
  %37 = load i64, ptr %36, align 8
  %38 = call ptr @DatumGetBoxP(i64 noundef %37)
  %39 = icmp eq ptr %38, null
  br i1 %39, label %43, label %40

40:                                               ; preds = %1
  %41 = load ptr, ptr %5, align 8
  %42 = icmp eq ptr %41, null
  br i1 %42, label %43, label %45

43:                                               ; preds = %40, %1
  %44 = call i64 @BoolGetDatum(i1 noundef zeroext false)
  store i64 %44, ptr %2, align 8
  store i32 1, ptr %9, align 4
  br label %72

45:                                               ; preds = %40
  %46 = load ptr, ptr %4, align 8
  %47 = getelementptr inbounds nuw %struct.GISTENTRY, ptr %46, i32 0, i32 0
  %48 = load i64, ptr %47, align 8
  %49 = call ptr @DatumGetBoxP(i64 noundef %48)
  %50 = load ptr, ptr %5, align 8
  %51 = getelementptr inbounds nuw %struct.POLYGON, ptr %50, i32 0, i32 2
  %52 = load i16, ptr %6, align 2
  %53 = call zeroext i1 @rtree_internal_consistent(ptr noundef %49, ptr noundef %51, i16 noundef zeroext %52)
  %54 = zext i1 %53 to i8
  store i8 %54, ptr %8, align 1
  br label %55

55:                                               ; preds = %45
  %56 = load ptr, ptr %5, align 8
  %57 = load ptr, ptr %3, align 8
  %58 = getelementptr inbounds nuw %struct.FunctionCallInfoBaseData, ptr %57, i32 0, i32 6
  %59 = getelementptr inbounds [0 x %struct.NullableDatum], ptr %58, i64 0, i64 1
  %60 = getelementptr inbounds nuw %struct.NullableDatum, ptr %59, i32 0, i32 0
  %61 = load i64, ptr %60, align 8
  %62 = call ptr @DatumGetPointer(i64 noundef %61)
  %63 = icmp ne ptr %56, %62
  br i1 %63, label %64, label %66

64:                                               ; preds = %55
  %65 = load ptr, ptr %5, align 8
  call void @pfree(ptr noundef %65)
  br label %66

66:                                               ; preds = %64, %55
  br label %67

67:                                               ; preds = %66
  br label %68

68:                                               ; preds = %67
  %69 = load i8, ptr %8, align 1, !range !4, !noundef !5
  %70 = trunc i8 %69 to i1
  %71 = call i64 @BoolGetDatum(i1 noundef zeroext %70)
  store i64 %71, ptr %2, align 8
  store i32 1, ptr %9, align 4
  br label %72

72:                                               ; preds = %68, %43
  call void @llvm.lifetime.end.p0(i64 1, ptr %8) #10
  call void @llvm.lifetime.end.p0(i64 8, ptr %7) #10
  call void @llvm.lifetime.end.p0(i64 2, ptr %6) #10
  call void @llvm.lifetime.end.p0(i64 8, ptr %5) #10
  call void @llvm.lifetime.end.p0(i64 8, ptr %4) #10
  %73 = load i64, ptr %2, align 8
  ret i64 %73
}