; Function Attrs: nounwind uwtable
define dso_local range(i64 0, 2) i64 @gist_poly_consistent(ptr noundef readonly captures(none) %0) #0 {
  %2 = getelementptr inbounds nuw i8, ptr %0, i64 32
  %3 = load i64, ptr %2, align 8
  %4 = inttoptr i64 %3 to ptr
  %5 = getelementptr inbounds nuw i8, ptr %0, i64 48
  %6 = load i64, ptr %5, align 8
  %7 = inttoptr i64 %6 to ptr
  %8 = tail call ptr @pg_detoast_datum(ptr noundef %7) #16
  %9 = getelementptr inbounds nuw i8, ptr %0, i64 64
  %10 = load i64, ptr %9, align 8
  %11 = getelementptr inbounds nuw i8, ptr %0, i64 96
  %12 = load i64, ptr %11, align 8
  %13 = inttoptr i64 %12 to ptr
  store i8 1, ptr %13, align 1
  %14 = load i64, ptr %4, align 8
  %15 = icmp eq i64 %14, 0
  %16 = icmp eq ptr %8, null
  %or.cond = select i1 %15, i1 true, i1 %16
  br i1 %or.cond, label %27, label %17

17:                                               ; preds = %1
  %18 = inttoptr i64 %14 to ptr
  %19 = trunc i64 %10 to i16
  %20 = getelementptr inbounds nuw i8, ptr %8, i64 8
  %21 = tail call fastcc zeroext i1 @rtree_internal_consistent(ptr noundef nonnull %18, ptr noundef %20, i16 noundef zeroext %19)
  %22 = load i64, ptr %5, align 8
  %23 = inttoptr i64 %22 to ptr
  %.not = icmp eq ptr %8, %23
  br i1 %.not, label %25, label %24

24:                                               ; preds = %17
  tail call void @pfree(ptr noundef nonnull %8) #16
  br label %25

25:                                               ; preds = %24, %17
  %26 = zext i1 %21 to i64
  br label %27

27:                                               ; preds = %1, %25
  %.0 = phi i64 [ %26, %25 ], [ 0, %1 ]
  ret i64 %.0
}